target datalayout = "e-m:e-p270:32:32-p271:32:32-p272:64:64-i64:64-i128:128-f80:128-n8:16:32:64-S128"
target triple = "x86_64-pc-linux-gnu"

@libctx = internal global ptr null, align 8
@.str.24 = private unnamed_addr constant [34 x i8] c"../openssl/test/evp_libctx_test.c\00", align 1
@.str.106 = private unnamed_addr constant [61 x i8] c"*priv = EVP_PKEY_Q_keygen(libctx, NULL, \22RSA\22, (size_t)bits)\00", align 1
@.str.107 = private unnamed_addr constant [4 x i8] c"RSA\00", align 1
@.str.108 = private unnamed_addr constant [95 x i8] c"ectx = OSSL_ENCODER_CTX_new_for_pkey(*priv, EVP_PKEY_PUBLIC_KEY, \22DER\22, \22type-specific\22, NULL)\00", align 1
@.str.109 = private unnamed_addr constant [4 x i8] c"DER\00", align 1
@.str.110 = private unnamed_addr constant [14 x i8] c"type-specific\00", align 1
@.str.111 = private unnamed_addr constant [43 x i8] c"OSSL_ENCODER_to_data(ectx, &pub_der, &len)\00", align 1
@.str.112 = private unnamed_addr constant [43 x i8] c"d2i_PublicKey(EVP_PKEY_RSA, pub, &pp, len)\00", align 1

; Function Attrs: nounwind uwtable
define internal i32 @rsa_keygen(i32 noundef %0, ptr noundef %1, ptr noundef %2) #0 {
  %4 = alloca i32, align 4
  %5 = alloca ptr, align 8
  %6 = alloca ptr, align 8
  %7 = alloca i32, align 4
  %8 = alloca ptr, align 8
  %9 = alloca ptr, align 8
  %10 = alloca i64, align 8
  %11 = alloca ptr, align 8
  store i32 %0, ptr %4, align 4, !tbaa !9
  store ptr %1, ptr %5, align 8, !tbaa !46
  store ptr %2, ptr %6, align 8, !tbaa !46
  call void @llvm.lifetime.start.p0(i64 4, ptr %7) #7
  store i32 0, ptr %7, align 4, !tbaa !9
  call void @llvm.lifetime.start.p0(i64 8, ptr %8) #7
  store ptr null, ptr %8, align 8, !tbaa !4
  call void @llvm.lifetime.start.p0(i64 8, ptr %9) #7
  store ptr null, ptr %9, align 8, !tbaa !4
  call void @llvm.lifetime.start.p0(i64 8, ptr %10) #7
  store i64 0, ptr %10, align 8, !tbaa !36
  call void @llvm.lifetime.start.p0(i64 8, ptr %11) #7
  store ptr null, ptr %11, align 8, !tbaa !48
  %12 = load ptr, ptr @libctx, align 8, !tbaa !13
  %13 = load i32, ptr %4, align 4, !tbaa !9
  %14 = sext i32 %13 to i64
  %15 = call ptr (ptr, ptr, ptr, ...) @EVP_PKEY_Q_keygen(ptr noundef %12, ptr noundef null, ptr noundef @.str.107, i64 noundef %14)
  %16 = load ptr, ptr %6, align 8, !tbaa !46
  store ptr %15, ptr %16, align 8, !tbaa !21
  %17 = call i32 @test_ptr(ptr noundef @.str.24, i32 noundef 552, ptr noundef @.str.106, ptr noundef %15)
  %18 = icmp ne i32 %17, 0
  br i1 %18, label %19, label %32

19:                                               ; preds = %3
  %20 = load ptr, ptr %6, align 8, !tbaa !46
  %21 = load ptr, ptr %20, align 8, !tbaa !21
  %22 = call ptr @OSSL_ENCODER_CTX_new_for_pkey(ptr noundef %21, i32 noundef 134, ptr noundef @.str.109, ptr noundef @.str.110, ptr noundef null)
  store ptr %22, ptr %11, align 8, !tbaa !48
  %23 = call i32 @test_ptr(ptr noundef @.str.24, i32 noundef 557, ptr noundef @.str.108, ptr noundef %22)
  %24 = icmp ne i32 %23, 0
  br i1 %24, label %25, label %32

25:                                               ; preds = %19
  %26 = load ptr, ptr %11, align 8, !tbaa !48
  %27 = call i32 @OSSL_ENCODER_to_data(ptr noundef %26, ptr noundef %8, ptr noundef %10)
  %28 = icmp ne i32 %27, 0
  %29 = zext i1 %28 to i32
  %30 = call i32 @test_true(ptr noundef @.str.24, i32 noundef 558, ptr noundef @.str.111, i32 noundef %29)
  %31 = icmp ne i32 %30, 0
  br i1 %31, label %33, label %32

32:                                               ; preds = %25, %19, %3
  br label %42

33:                                               ; preds = %25
  %34 = load ptr, ptr %8, align 8, !tbaa !4
  store ptr %34, ptr %9, align 8, !tbaa !4
  %35 = load ptr, ptr %5, align 8, !tbaa !46
  %36 = load i64, ptr %10, align 8, !tbaa !36
  %37 = call ptr @d2i_PublicKey(i32 noundef 6, ptr noundef %35, ptr noundef %9, i64 noundef %36)
  %38 = call i32 @test_ptr(ptr noundef @.str.24, i32 noundef 561, ptr noundef @.str.112, ptr noundef %37)
  %39 = icmp ne i32 %38, 0
  br i1 %39, label %41, label %40

40:                                               ; preds = %33
  br label %42

41:                                               ; preds = %33
  store i32 1, ptr %7, align 4, !tbaa !9
  br label %42

42:                                               ; preds = %41, %40, %32
  %43 = load ptr, ptr %11, align 8, !tbaa !48
  call void @OSSL_ENCODER_CTX_free(ptr noundef %43)
  %44 = load ptr, ptr %8, align 8, !tbaa !4
  call void @CRYPTO_free(ptr noundef %44, ptr noundef @.str.24, i32 noundef 566)
  %45 = load i32, ptr %7, align 4, !tbaa !9
  call void @llvm.lifetime.end.p0(i64 8, ptr %11) #7
  call void @llvm.lifetime.end.p0(i64 8, ptr %10) #7
  call void @llvm.lifetime.end.p0(i64 8, ptr %9) #7
  call void @llvm.lifetime.end.p0(i64 8, ptr %8) #7
  call void @llvm.lifetime.end.p0(i64 4, ptr %7) #7
  ret i32 %45
}