; Function Attrs: nounwind uwtable
define internal fastcc range(i32 0, 2) i32 @rsa_keygen(ptr noundef nonnull %0, ptr noundef nonnull captures(none) initializes((0, 8)) %1) unnamed_addr #1 {
  %3 = alloca ptr, align 8
  %4 = alloca ptr, align 8
  %5 = alloca i64, align 8
  call void @llvm.lifetime.start.p0(i64 8, ptr nonnull %3) #7
  store ptr null, ptr %3, align 8, !tbaa !15
  call void @llvm.lifetime.start.p0(i64 8, ptr nonnull %4) #7
  store ptr null, ptr %4, align 8, !tbaa !15
  call void @llvm.lifetime.start.p0(i64 8, ptr nonnull %5) #7
  store i64 0, ptr %5, align 8, !tbaa !23
  %6 = load ptr, ptr @libctx, align 8, !tbaa !6
  %7 = tail call ptr (ptr, ptr, ptr, ...) @EVP_PKEY_Q_keygen(ptr noundef %6, ptr noundef null, ptr noundef nonnull @.str.107, i64 noundef 2048) #7
  store ptr %7, ptr %1, align 8, !tbaa !13
  %8 = tail call i32 @test_ptr(ptr noundef nonnull @.str.24, i32 noundef 552, ptr noundef nonnull @.str.106, ptr noundef %7) #7
  %.not = icmp eq i32 %8, 0
  br i1 %.not, label %23, label %9

9:                                                ; preds = %2
  %10 = load ptr, ptr %1, align 8, !tbaa !13
  %11 = tail call ptr @OSSL_ENCODER_CTX_new_for_pkey(ptr noundef %10, i32 noundef 134, ptr noundef nonnull @.str.109, ptr noundef nonnull @.str.110, ptr noundef null) #7
  %12 = tail call i32 @test_ptr(ptr noundef nonnull @.str.24, i32 noundef 557, ptr noundef nonnull @.str.108, ptr noundef %11) #7
  %.not7 = icmp eq i32 %12, 0
  br i1 %.not7, label %23, label %13

13:                                               ; preds = %9
  %14 = call i32 @OSSL_ENCODER_to_data(ptr noundef %11, ptr noundef nonnull %3, ptr noundef nonnull %5) #7
  %15 = icmp ne i32 %14, 0
  %16 = zext i1 %15 to i32
  %17 = call i32 @test_true(ptr noundef nonnull @.str.24, i32 noundef 558, ptr noundef nonnull @.str.111, i32 noundef %16) #7
  %.not8 = icmp eq i32 %17, 0
  br i1 %.not8, label %23, label %18

18:                                               ; preds = %13
  %19 = load ptr, ptr %3, align 8, !tbaa !15
  store ptr %19, ptr %4, align 8, !tbaa !15
  %20 = load i64, ptr %5, align 8, !tbaa !23
  %21 = call ptr @d2i_PublicKey(i32 noundef 6, ptr noundef nonnull %0, ptr noundef nonnull %4, i64 noundef %20) #7
  %22 = call i32 @test_ptr(ptr noundef nonnull @.str.24, i32 noundef 561, ptr noundef nonnull @.str.112, ptr noundef %21) #7
  %.not9 = icmp ne i32 %22, 0
  %spec.select = zext i1 %.not9 to i32
  br label %23

23:                                               ; preds = %18, %2, %9, %13
  %.06 = phi i32 [ 0, %13 ], [ 0, %9 ], [ 0, %2 ], [ %spec.select, %18 ]
  %.0 = phi ptr [ %11, %13 ], [ %11, %9 ], [ null, %2 ], [ %11, %18 ]
  call void @OSSL_ENCODER_CTX_free(ptr noundef %.0) #7
  %24 = load ptr, ptr %3, align 8, !tbaa !15
  call void @CRYPTO_free(ptr noundef %24, ptr noundef nonnull @.str.24, i32 noundef 566) #7
  call void @llvm.lifetime.end.p0(i64 8, ptr nonnull %5) #7
  call void @llvm.lifetime.end.p0(i64 8, ptr nonnull %4) #7
  call void @llvm.lifetime.end.p0(i64 8, ptr nonnull %3) #7
  ret i32 %.06
}